target datalayout = "e-m:e-p270:32:32-p271:32:32-p272:64:64-i64:64-i128:128-f80:128-n8:16:32:64-S128"
target triple = "x86_64-pc-linux-gnu"

@.str.12 = private unnamed_addr constant [3 x i8] c"==\00", align 1
@.str.41 = private unnamed_addr constant [5 x i8] c"bool\00", align 1
@.str.42 = private unnamed_addr constant [5 x i8] c"true\00", align 1
@.str.43 = private unnamed_addr constant [6 x i8] c"false\00", align 1

; Function Attrs: nounwind uwtable
define i32 @test_true(ptr noundef %0, i32 noundef %1, ptr noundef %2, i32 noundef %3) #0 {
  %5 = alloca i32, align 4
  %6 = alloca ptr, align 8
  %7 = alloca i32, align 4
  %8 = alloca ptr, align 8
  %9 = alloca i32, align 4
  store ptr %0, ptr %6, align 8, !tbaa !3
  store i32 %1, ptr %7, align 4, !tbaa !8
  store ptr %2, ptr %8, align 8, !tbaa !3
  store i32 %3, ptr %9, align 4, !tbaa !8
  %10 = load i32, ptr %9, align 4, !tbaa !8
  %11 = icmp ne i32 %10, 0
  br i1 %11, label %12, label %13

12:                                               ; preds = %4
  store i32 1, ptr %5, align 4
  br label %17

13:                                               ; preds = %4
  %14 = load ptr, ptr %6, align 8, !tbaa !3
  %15 = load i32, ptr %7, align 4, !tbaa !8
  %16 = load ptr, ptr %8, align 8, !tbaa !3
  call void (ptr, ptr, i32, ptr, ptr, ptr, ptr, ptr, ...) @test_fail_message(ptr noundef null, ptr noundef %14, i32 noundef %15, ptr noundef @.str.41, ptr noundef %16, ptr noundef @.str.42, ptr noundef @.str.12, ptr noundef @.str.43)
  store i32 0, ptr %5, align 4
  br label %17

17:                                               ; preds = %13, %12
  %18 = load i32, ptr %5, align 4
  ret i32 %18
}